; Function Attrs: nofree norecurse nosync nounwind memory(read, inaccessiblemem: none) uwtable
define dso_local range(i32 0, 2) i32 @bitmap_is_empty(ptr noundef readonly captures(none) %0) local_unnamed_addr #7 {
  %2 = getelementptr inbounds nuw i8, ptr %0, i64 8
  %3 = load i64, ptr %2, align 8, !tbaa !11
  %.not9 = icmp eq i64 %3, 0
  br i1 %.not9, label %._crit_edge, label %.lr.ph

.lr.ph:                                           ; preds = %1
  %4 = load ptr, ptr %0, align 8, !tbaa !4
  br label %7

5:                                                ; preds = %7
  %6 = add nuw i64 %.06, 1
  %exitcond.not = icmp eq i64 %6, %3
  br i1 %exitcond.not, label %._crit_edge, label %7, !llvm.loop !25

7:                                                ; preds = %.lr.ph, %5
  %.06 = phi i64 [ 0, %.lr.ph ], [ %6, %5 ]
  %8 = getelementptr inbounds nuw i64, ptr %4, i64 %.06
  %9 = load i64, ptr %8, align 8, !tbaa !12
  %.not = icmp eq i64 %9, 0
  br i1 %.not, label %5, label %._crit_edge

._crit_edge:                                      ; preds = %7, %5, %1
  %.05 = phi i32 [ 1, %1 ], [ 1, %5 ], [ 0, %7 ]
  ret i32 %.05
}